target datalayout = "e-m:e-p270:32:32-p271:32:32-p272:64:64-i64:64-i128:128-f80:128-n8:16:32:64-S128"
target triple = "x86_64-pc-linux-gnu"

%struct.Curl_ssl = type { %struct.curl_ssl_backend, i32, i64, ptr, ptr, ptr, ptr, ptr, ptr, ptr, ptr, ptr, ptr, ptr, ptr, ptr, ptr, ptr, ptr, ptr, ptr, ptr, ptr, ptr, ptr, ptr, ptr, ptr }
%struct.curl_ssl_backend = type { i32, ptr }
%struct.Curl_cftype = type { ptr, i32, i32, ptr, ptr, ptr, ptr, ptr, ptr, ptr, ptr, ptr, ptr, ptr, ptr }
%struct.Curl_easy = type { i32, i64, ptr, ptr, ptr, %struct.Curl_llist_element, %struct.Curl_llist_element, i32, i32, %struct.Curl_message, %struct.easy_pollset, %struct.Names, ptr, ptr, ptr, %struct.SingleRequest, %struct.UserDefined, ptr, ptr, %struct.Progress, %struct.UrlState, ptr, %struct.PureInfo, %struct.curl_tlssessioninfo }
%struct.Curl_llist_element = type { ptr, ptr, ptr }
%struct.Curl_message = type { %struct.Curl_llist_element, %struct.CURLMsg }
%struct.CURLMsg = type { i32, ptr, %union.anon }
%union.anon = type { ptr }
%struct.easy_pollset = type { [5 x i32], i32, [5 x i8] }
%struct.Names = type { ptr, i32 }
%struct.SingleRequest = type <{ i64, i64, i64, i64, i64, %struct.curltime, i32, i32, i32, i32, i64, i32, i32, %struct.curltime, i32, i32, ptr, i64, i64, ptr, ptr, i64, ptr, %union.anon.0, ptr, [2 x i8], i8, i16, [3 x i8] }>
%struct.curltime = type { i64, i32 }
%union.anon.0 = type { ptr }
%struct.UserDefined = type <{ ptr, ptr, ptr, ptr, ptr, ptr, i16, [6 x i8], i64, i64, i64, ptr, ptr, i64, i16, i16, [4 x i8], ptr, ptr, ptr, ptr, ptr, ptr, ptr, ptr, ptr, ptr, ptr, ptr, ptr, ptr, ptr, ptr, ptr, ptr, ptr, ptr, ptr, ptr, ptr, i32, i32, i32, i32, i64, i64, i64, i64, i64, i64, i64, i64, ptr, ptr, %struct.curl_mimepart, ptr, ptr, i64, i8, i8, i8, [5 x i8], %struct.ssl_config_data, %struct.ssl_config_data, ptr, i16, i8, i8, [4 x i8], %struct.ssl_general_config, i32, i32, i32, [4 x i8], ptr, ptr, i8, [7 x i8], i64, i8, i8, i8, i8, i32, ptr, ptr, ptr, i8, i8, [2 x i8], i32, [80 x ptr], [8 x ptr], i32, i32, i32, [4 x i8], ptr, ptr, ptr, ptr, ptr, i8, [3 x i8], i32, i32, [4 x i8], i64, %struct.Curl_data_priority, ptr, ptr, i64, ptr, ptr, ptr, ptr, ptr, i8, [3 x i8], i32, i8, i8, i56, [6 x i8] }>
%struct.curl_mimepart = type { ptr, ptr, i32, i32, ptr, ptr, ptr, ptr, ptr, ptr, ptr, ptr, ptr, ptr, ptr, i64, %struct.mime_state, ptr, %struct.mime_encoder_state, i64 }
%struct.mime_state = type { i32, ptr, i64 }
%struct.mime_encoder_state = type { i64, i64, i64, [256 x i8] }
%struct.ssl_config_data = type { %struct.ssl_primary_config, i64, ptr, ptr, ptr, ptr, ptr, ptr, ptr, i8 }
%struct.ssl_primary_config = type { ptr, ptr, ptr, ptr, ptr, ptr, ptr, ptr, ptr, ptr, ptr, ptr, i8, i32, i8, i8 }
%struct.ssl_general_config = type { i64, i32 }
%struct.Curl_data_priority = type { ptr, ptr, i32, i8 }
%struct.Progress = type { i64, i64, i64, i64, i64, i64, i32, i32, i64, i64, i64, i64, i64, i64, i64, i64, i64, i64, %struct.curltime, %struct.curltime, %struct.curltime, %struct.curltime, %struct.curltime, i64, %struct.curltime, i64, [6 x i64], [6 x %struct.curltime], i32, i8 }
%struct.UrlState = type { ptr, %struct.curltime, i64, i64, %struct.dynbuf, ptr, ptr, ptr, i64, ptr, i32, i32, i32, ptr, i64, [3 x %struct.tempbuf], i32, i32, ptr, i64, i32, ptr, %struct.digestdata, %struct.digestdata, %struct.auth, %struct.auth, %struct.Curl_async, ptr, %struct.curltime, %struct.Curl_tree, %struct.Curl_llist, [15 x %struct.time_node], ptr, i8, i64, ptr, i64, i64, %struct.Curl_data_priority, ptr, ptr, ptr, %struct.urlpieces, ptr, ptr, ptr, ptr, ptr, i64, %struct.dynbuf, %struct.Curl_llist, [2 x %struct.curl_header], ptr, i32, ptr, %struct.dynamically_allocated_data, i8, i8, i8, i8, i24 }
%struct.tempbuf = type { %struct.dynbuf, i32, i8 }
%struct.digestdata = type { ptr, ptr, ptr, ptr, ptr, ptr, i32, i8, i8 }
%struct.auth = type { i64, i64, i64, i8 }
%struct.Curl_async = type { ptr, ptr, ptr, ptr, i32, i32, i8 }
%struct.Curl_tree = type { ptr, ptr, ptr, ptr, %struct.curltime, ptr }
%struct.time_node = type { %struct.Curl_llist_element, %struct.curltime, i32 }
%struct.urlpieces = type { ptr, ptr, ptr, ptr, ptr, ptr, ptr, ptr }
%struct.dynbuf = type { ptr, i64, i64, i64 }
%struct.Curl_llist = type { ptr, ptr, ptr, i64 }
%struct.curl_header = type { ptr, ptr, i64, i64, i32, ptr }
%struct.dynamically_allocated_data = type { ptr, ptr, ptr, ptr, ptr, ptr, ptr, ptr, ptr, ptr, ptr, ptr, ptr, ptr }
%struct.PureInfo = type { i32, i32, i32, i64, i64, i64, i64, i64, ptr, ptr, i64, i32, [46 x i8], i32, i32, [46 x i8], i32, ptr, i32, %struct.curl_certinfo, i32, i8 }
%struct.curl_certinfo = type { i32, ptr }
%struct.curl_tlssessioninfo = type { i32, ptr }
%struct.Curl_cfilter = type { ptr, ptr, ptr, ptr, i32, i8 }
%struct.ssl_connect_data = type { i32, i32, %struct.ssl_peer, ptr, ptr, %struct.cf_call_data, %struct.curltime, i32, i8 }
%struct.ssl_peer = type { ptr, ptr, ptr, i8 }
%struct.cf_call_data = type { ptr }

@Curl_ssl = dso_local global ptr @Curl_ssl_openssl, align 8
@.str.25 = private unnamed_addr constant [28 x i8] c"cf_recv(len=%zu) -> %zd, %d\00", align 1

; Function Attrs: nounwind uwtable
define internal i64 @ssl_cf_recv(ptr noundef %0, ptr noundef %1, ptr noundef %2, i64 noundef %3, ptr noundef %4) #0 {
  %6 = alloca ptr, align 8
  %7 = alloca ptr, align 8
  %8 = alloca ptr, align 8
  %9 = alloca i64, align 8
  %10 = alloca ptr, align 8
  %11 = alloca %struct.cf_call_data, align 8
  %12 = alloca i64, align 8
  %13 = alloca i64, align 8
  store ptr %0, ptr %6, align 8
  store ptr %1, ptr %7, align 8
  store ptr %2, ptr %8, align 8
  store i64 %3, ptr %9, align 8
  store ptr %4, ptr %10, align 8
  store i64 0, ptr %13, align 8
  br label %14

14:                                               ; preds = %5
  %15 = load ptr, ptr %6, align 8
  %16 = getelementptr inbounds %struct.Curl_cfilter, ptr %15, i32 0, i32 2
  %17 = load ptr, ptr %16, align 8
  %18 = getelementptr inbounds %struct.ssl_connect_data, ptr %17, i32 0, i32 5
  call void @llvm.memcpy.p0.p0.i64(ptr align 8 %11, ptr align 8 %18, i64 8, i1 false)
  %19 = load ptr, ptr %7, align 8
  %20 = load ptr, ptr %6, align 8
  %21 = getelementptr inbounds %struct.Curl_cfilter, ptr %20, i32 0, i32 2
  %22 = load ptr, ptr %21, align 8
  %23 = getelementptr inbounds %struct.ssl_connect_data, ptr %22, i32 0, i32 5
  %24 = getelementptr inbounds %struct.cf_call_data, ptr %23, i32 0, i32 0
  store ptr %19, ptr %24, align 8
  br label %25

25:                                               ; preds = %14
  %26 = load ptr, ptr %10, align 8
  store i32 0, ptr %26, align 4
  br label %27

27:                                               ; preds = %74, %25
  %28 = load i64, ptr %13, align 8
  %29 = icmp ne i64 %28, 0
  br i1 %29, label %30, label %35

30:                                               ; preds = %27
  %31 = load i64, ptr %9, align 8
  %32 = load i64, ptr %13, align 8
  %33 = sub i64 %31, %32
  %34 = icmp ugt i64 %33, 4096
  br label %35

35:                                               ; preds = %30, %27
  %36 = phi i1 [ true, %27 ], [ %34, %30 ]
  br i1 %36, label %37, label %75

37:                                               ; preds = %35
  %38 = load ptr, ptr %10, align 8
  store i32 0, ptr %38, align 4
  %39 = load ptr, ptr @Curl_ssl, align 8
  %40 = getelementptr inbounds %struct.Curl_ssl, ptr %39, i32 0, i32 26
  %41 = load ptr, ptr %40, align 8
  %42 = load ptr, ptr %6, align 8
  %43 = load ptr, ptr %7, align 8
  %44 = load ptr, ptr %8, align 8
  %45 = load i64, ptr %13, align 8
  %46 = getelementptr inbounds i8, ptr %44, i64 %45
  %47 = load i64, ptr %9, align 8
  %48 = load i64, ptr %13, align 8
  %49 = sub i64 %47, %48
  %50 = load ptr, ptr %10, align 8
  %51 = call i64 %41(ptr noundef %42, ptr noundef %43, ptr noundef %46, i64 noundef %49, ptr noundef %50)
  store i64 %51, ptr %12, align 8
  %52 = load i64, ptr %12, align 8
  %53 = icmp slt i64 %52, 0
  br i1 %53, label %54, label %64

54:                                               ; preds = %37
  %55 = load ptr, ptr %10, align 8
  %56 = load i32, ptr %55, align 4
  %57 = icmp eq i32 %56, 81
  br i1 %57, label %58, label %63

58:                                               ; preds = %54
  %59 = load i64, ptr %13, align 8
  %60 = icmp ugt i64 %59, 0
  br i1 %60, label %61, label %63

61:                                               ; preds = %58
  %62 = load ptr, ptr %10, align 8
  store i32 0, ptr %62, align 4
  br label %75

63:                                               ; preds = %58, %54
  br label %77

64:                                               ; preds = %37
  %65 = load i64, ptr %12, align 8
  %66 = icmp eq i64 %65, 0
  br i1 %66, label %67, label %68

67:                                               ; preds = %64
  br label %75

68:                                               ; preds = %64
  br label %69

69:                                               ; preds = %68
  %70 = load i64, ptr %12, align 8
  %71 = load i64, ptr %13, align 8
  %72 = add i64 %71, %70
  store i64 %72, ptr %13, align 8
  br label %73

73:                                               ; preds = %69
  br label %74

74:                                               ; preds = %73
  br label %27, !llvm.loop !15

75:                                               ; preds = %67, %61, %35
  %76 = load i64, ptr %13, align 8
  store i64 %76, ptr %12, align 8
  br label %77

77:                                               ; preds = %75, %63
  br label %78

78:                                               ; preds = %77
  %79 = load ptr, ptr %7, align 8
  %80 = icmp ne ptr %79, null
  br i1 %80, label %81, label %107

81:                                               ; preds = %78
  %82 = load ptr, ptr %7, align 8
  %83 = getelementptr inbounds %struct.Curl_easy, ptr %82, i32 0, i32 16
  %84 = getelementptr inbounds %struct.UserDefined, ptr %83, i32 0, i32 122
  %85 = load i64, ptr %84, align 2
  %86 = lshr i64 %85, 28
  %87 = and i64 %86, 1
  %88 = trunc i64 %87 to i32
  %89 = icmp ne i32 %88, 0
  br i1 %89, label %90, label %107

90:                                               ; preds = %81
  %91 = load ptr, ptr %6, align 8
  %92 = icmp ne ptr %91, null
  br i1 %92, label %93, label %107

93:                                               ; preds = %90
  %94 = load ptr, ptr %6, align 8
  %95 = getelementptr inbounds %struct.Curl_cfilter, ptr %94, i32 0, i32 0
  %96 = load ptr, ptr %95, align 8
  %97 = getelementptr inbounds %struct.Curl_cftype, ptr %96, i32 0, i32 2
  %98 = load i32, ptr %97, align 4
  %99 = icmp sge i32 %98, 1
  br i1 %99, label %100, label %107

100:                                              ; preds = %93
  %101 = load ptr, ptr %7, align 8
  %102 = load ptr, ptr %6, align 8
  %103 = load i64, ptr %9, align 8
  %104 = load i64, ptr %12, align 8
  %105 = load ptr, ptr %10, align 8
  %106 = load i32, ptr %105, align 4
  call void (ptr, ptr, ptr, ...) @Curl_trc_cf_infof(ptr noundef %101, ptr noundef %102, ptr noundef @.str.25, i64 noundef %103, i64 noundef %104, i32 noundef %106)
  br label %107

107:                                              ; preds = %100, %93, %90, %81, %78
  br label %108

108:                                              ; preds = %107
  br label %109

109:                                              ; preds = %108
  %110 = load ptr, ptr %6, align 8
  %111 = getelementptr inbounds %struct.Curl_cfilter, ptr %110, i32 0, i32 2
  %112 = load ptr, ptr %111, align 8
  %113 = getelementptr inbounds %struct.ssl_connect_data, ptr %112, i32 0, i32 5
  call void @llvm.memcpy.p0.p0.i64(ptr align 8 %113, ptr align 8 %11, i64 8, i1 false)
  br label %114

114:                                              ; preds = %109
  %115 = load i64, ptr %12, align 8
  ret i64 %115
}