; Function Attrs: nounwind uwtable
define internal i64 @ssl_cf_recv(ptr noundef %0, ptr noundef %1, ptr noundef %2, i64 noundef %3, ptr noundef initializes((0, 4)) %4) #2 {
  %6 = getelementptr inbounds nuw i8, ptr %0, i64 16
  %7 = load ptr, ptr %6, align 8
  %8 = getelementptr inbounds nuw i8, ptr %7, i64 56
  %.sroa.0.0.copyload = load ptr, ptr %8, align 8
  store ptr %1, ptr %8, align 8
  br label %9

9:                                                ; preds = %5, %24
  %10 = phi i64 [ %3, %5 ], [ %26, %24 ]
  %.043 = phi i64 [ 0, %5 ], [ %25, %24 ]
  store i32 0, ptr %4, align 4
  %11 = load ptr, ptr @Curl_ssl, align 8
  %12 = getelementptr inbounds nuw i8, ptr %11, i64 216
  %13 = load ptr, ptr %12, align 8
  %14 = getelementptr inbounds i8, ptr %2, i64 %.043
  %15 = tail call i64 %13(ptr noundef %0, ptr noundef %1, ptr noundef %14, i64 noundef %10, ptr noundef nonnull %4) #18
  %16 = icmp slt i64 %15, 0
  br i1 %16, label %17, label %22

17:                                               ; preds = %9
  %18 = load i32, ptr %4, align 4
  %19 = icmp eq i32 %18, 81
  %20 = icmp ne i64 %.043, 0
  %or.cond = and i1 %20, %19
  br i1 %or.cond, label %21, label %.loopexit

21:                                               ; preds = %17
  store i32 0, ptr %4, align 4
  br label %.loopexit

22:                                               ; preds = %9
  %23 = icmp eq i64 %15, 0
  br i1 %23, label %.loopexit, label %24

24:                                               ; preds = %22
  %25 = add i64 %15, %.043
  %.not = icmp eq i64 %25, 0
  %26 = sub i64 %3, %25
  %27 = icmp ugt i64 %26, 4096
  %28 = or i1 %.not, %27
  br i1 %28, label %9, label %.loopexit, !llvm.loop !16

.loopexit:                                        ; preds = %24, %22, %21, %17
  %.037 = phi i64 [ %15, %17 ], [ %.043, %21 ], [ %.043, %22 ], [ %25, %24 ]
  %.not41 = icmp eq ptr %1, null
  br i1 %.not41, label %42, label %29

29:                                               ; preds = %.loopexit
  %30 = getelementptr inbounds nuw i8, ptr %1, i64 2642
  %31 = load i64, ptr %30, align 2
  %32 = and i64 %31, 268435456
  %33 = icmp ne i64 %32, 0
  %34 = icmp ne ptr %0, null
  %or.cond3 = and i1 %34, %33
  br i1 %or.cond3, label %35, label %42

35:                                               ; preds = %29
  %36 = load ptr, ptr %0, align 8
  %37 = getelementptr inbounds nuw i8, ptr %36, i64 12
  %38 = load i32, ptr %37, align 4
  %39 = icmp sgt i32 %38, 0
  br i1 %39, label %40, label %42

40:                                               ; preds = %35
  %41 = load i32, ptr %4, align 4
  tail call void (ptr, ptr, ptr, ...) @Curl_trc_cf_infof(ptr noundef nonnull %1, ptr noundef nonnull %0, ptr noundef nonnull @.str.25, i64 noundef %3, i64 noundef %.037, i32 noundef %41) #18
  br label %42

42:                                               ; preds = %40, %35, %29, %.loopexit
  %43 = load ptr, ptr %6, align 8
  %44 = getelementptr inbounds nuw i8, ptr %43, i64 56
  store ptr %.sroa.0.0.copyload, ptr %44, align 8
  ret i64 %.037
}